target datalayout = "e-m:e-p270:32:32-p271:32:32-p272:64:64-i64:64-i128:128-f80:128-n8:16:32:64-S128"
target triple = "x86_64-pc-linux-gnu"

; Function Attrs: nounwind uwtable
define dso_local i32 @LZ4_compressBound(i32 noundef %0) #0 {
  %2 = alloca i32, align 4
  store i32 %0, ptr %2, align 4, !tbaa !4
  %3 = load i32, ptr %2, align 4, !tbaa !4
  %4 = icmp ugt i32 %3, 2113929216
  br i1 %4, label %5, label %6

5:                                                ; preds = %1
  br label %12

6:                                                ; preds = %1
  %7 = load i32, ptr %2, align 4, !tbaa !4
  %8 = load i32, ptr %2, align 4, !tbaa !4
  %9 = sdiv i32 %8, 255
  %10 = add nsw i32 %7, %9
  %11 = add nsw i32 %10, 16
  br label %12

12:                                               ; preds = %6, %5
  %13 = phi i32 [ 0, %5 ], [ %11, %6 ]
  ret i32 %13
}